target datalayout = "e-m:e-p270:32:32-p271:32:32-p272:64:64-i64:64-i128:128-f80:128-n8:16:32:64-S128"
target triple = "x86_64-pc-linux-gnu"

%struct.json_dumper = type { ptr, ptr, i32, i32, i32, i32, [1100 x i8] }
%struct.jsmntok_t = type { i32, i32, i32, i32 }
%struct.df_error_t = type { i32, ptr, %struct._dfilter_loc }
%struct._dfilter_loc = type { i64, i64 }

@stdout = external global ptr, align 8
@dumper = internal global %struct.json_dumper zeroinitializer, align 8
@rpcid = internal global i32 0, align 4
@.str.5 = private unnamed_addr constant [3 x i8] c"%d\00", align 1
@.str.8 = private unnamed_addr constant [8 x i8] c"jsonrpc\00", align 1
@.str.9 = private unnamed_addr constant [4 x i8] c"2.0\00", align 1
@.str.10 = private unnamed_addr constant [3 x i8] c"id\00", align 1
@.str.14 = private unnamed_addr constant [7 x i8] c"status\00", align 1
@.str.33 = private unnamed_addr constant [6 x i8] c"field\00", align 1
@.str.34 = private unnamed_addr constant [7 x i8] c"filter\00", align 1
@.str.122 = private unnamed_addr constant [7 x i8] c"result\00", align 1
@__func__.sharkd_session_process_check = private unnamed_addr constant [29 x i8] c"sharkd_session_process_check\00", align 1
@.str.180 = private unnamed_addr constant [34 x i8] c"Filter contains deprecated tokens\00", align 1
@.str.181 = private unnamed_addr constant [20 x i8] c"Filter invalid - %s\00", align 1
@.str.182 = private unnamed_addr constant [19 x i8] c"Field %s not found\00", align 1
@.str.183 = private unnamed_addr constant [8 x i8] c"Warning\00", align 1
@.str.184 = private unnamed_addr constant [8 x i8] c"warning\00", align 1

; Function Attrs: null_pointer_is_valid sspstrong uwtable
define internal void @sharkd_json_response_close() #0 {
  call void @json_dumper_end_object(ptr noundef @dumper)
  %1 = call zeroext i1 @json_dumper_finish(ptr noundef @dumper)
  %2 = load ptr, ptr @stdout, align 8
  %3 = call i32 @fflush(ptr noundef %2)
  ret void
}

; Function Attrs: null_pointer_is_valid sspstrong uwtable
define internal void @sharkd_json_object_open(ptr noundef %0) #0 {
  %2 = alloca ptr, align 8
  store ptr %0, ptr %2, align 8
  %3 = load ptr, ptr %2, align 8
  %4 = icmp ne ptr %3, null
  br i1 %4, label %5, label %7

5:                                                ; preds = %1
  %6 = load ptr, ptr %2, align 8
  call void @json_dumper_set_member_name(ptr noundef @dumper, ptr noundef %6)
  br label %7

7:                                                ; preds = %5, %1
  call void @json_dumper_begin_object(ptr noundef @dumper)
  ret void
}

; Function Attrs: null_pointer_is_valid sspstrong uwtable
define internal void @sharkd_json_response_open(i32 noundef %0) #0 {
  %2 = alloca i32, align 4
  store i32 %0, ptr %2, align 4
  call void @json_dumper_begin_object(ptr noundef @dumper)
  call void @sharkd_json_value_string(ptr noundef @.str.8, ptr noundef @.str.9)
  %3 = load i32, ptr %2, align 4
  call void (ptr, ptr, ...) @sharkd_json_value_anyf(ptr noundef @.str.10, ptr noundef @.str.5, i32 noundef %3)
  ret void
}

; Function Attrs: null_pointer_is_valid sspstrong uwtable
define internal void @sharkd_json_result_epilogue() #0 {
  call void @json_dumper_end_object(ptr noundef @dumper)
  call void @sharkd_json_response_close()
  ret void
}

; Function Attrs: null_pointer_is_valid sspstrong uwtable
define internal void @sharkd_json_value_string(ptr noundef %0, ptr noundef %1) #0 {
  %3 = alloca ptr, align 8
  %4 = alloca ptr, align 8
  store ptr %0, ptr %3, align 8
  store ptr %1, ptr %4, align 8
  %5 = load ptr, ptr %3, align 8
  %6 = icmp ne ptr %5, null
  br i1 %6, label %7, label %9

7:                                                ; preds = %2
  %8 = load ptr, ptr %3, align 8
  call void @json_dumper_set_member_name(ptr noundef @dumper, ptr noundef %8)
  br label %9

9:                                                ; preds = %7, %2
  %10 = load ptr, ptr %4, align 8
  call void @json_dumper_value_string(ptr noundef @dumper, ptr noundef %10)
  ret void
}

; Function Attrs: null_pointer_is_valid sspstrong uwtable
define internal void @sharkd_json_result_prologue(i32 noundef %0) #0 {
  %2 = alloca i32, align 4
  store i32 %0, ptr %2, align 4
  %3 = load i32, ptr %2, align 4
  call void @sharkd_json_response_open(i32 noundef %3)
  call void @sharkd_json_object_open(ptr noundef @.str.122)
  ret void
}

; Function Attrs: null_pointer_is_valid sspstrong uwtable
define internal void @sharkd_json_warning(i32 noundef %0, ptr noundef %1) #0 {
  %3 = alloca i32, align 4
  %4 = alloca ptr, align 8
  store i32 %0, ptr %3, align 4
  store ptr %1, ptr %4, align 8
  %5 = load i32, ptr %3, align 4
  call void @sharkd_json_result_prologue(i32 noundef %5)
  call void @sharkd_json_value_string(ptr noundef @.str.14, ptr noundef @.str.183)
  %6 = load ptr, ptr %4, align 8
  call void @sharkd_json_value_string(ptr noundef @.str.184, ptr noundef %6)
  call void @sharkd_json_result_epilogue()
  ret void
}

; Function Attrs: nounwind null_pointer_is_valid sspstrong uwtable
define internal ptr @json_find_attr(ptr noundef %0, ptr noundef %1, i32 noundef %2, ptr noundef %3) #7 {
  %5 = alloca ptr, align 8
  %6 = alloca ptr, align 8
  %7 = alloca ptr, align 8
  %8 = alloca i32, align 4
  %9 = alloca ptr, align 8
  %10 = alloca i32, align 4
  %11 = alloca ptr, align 8
  %12 = alloca ptr, align 8
  %13 = alloca i32, align 4
  store ptr %0, ptr %6, align 8
  store ptr %1, ptr %7, align 8
  store i32 %2, ptr %8, align 4
  store ptr %3, ptr %9, align 8
  call void @llvm.lifetime.start.p0(i64 4, ptr %10) #21
  store i32 0, ptr %10, align 4
  br label %14

14:                                               ; preds = %49, %4
  %15 = load i32, ptr %10, align 4
  %16 = load i32, ptr %8, align 4
  %17 = icmp slt i32 %15, %16
  br i1 %17, label %18, label %52

18:                                               ; preds = %14
  call void @llvm.lifetime.start.p0(i64 8, ptr %11) #21
  %19 = load ptr, ptr %6, align 8
  %20 = load ptr, ptr %7, align 8
  %21 = load i32, ptr %10, align 4
  %22 = add i32 %21, 0
  %23 = sext i32 %22 to i64
  %24 = getelementptr %struct.jsmntok_t, ptr %20, i64 %23
  %25 = getelementptr inbounds nuw %struct.jsmntok_t, ptr %24, i32 0, i32 1
  %26 = load i32, ptr %25, align 4
  %27 = sext i32 %26 to i64
  %28 = getelementptr i8, ptr %19, i64 %27
  store ptr %28, ptr %11, align 8
  call void @llvm.lifetime.start.p0(i64 8, ptr %12) #21
  %29 = load ptr, ptr %6, align 8
  %30 = load ptr, ptr %7, align 8
  %31 = load i32, ptr %10, align 4
  %32 = add i32 %31, 1
  %33 = sext i32 %32 to i64
  %34 = getelementptr %struct.jsmntok_t, ptr %30, i64 %33
  %35 = getelementptr inbounds nuw %struct.jsmntok_t, ptr %34, i32 0, i32 1
  %36 = load i32, ptr %35, align 4
  %37 = sext i32 %36 to i64
  %38 = getelementptr i8, ptr %29, i64 %37
  store ptr %38, ptr %12, align 8
  %39 = load ptr, ptr %11, align 8
  %40 = load ptr, ptr %9, align 8
  %41 = call i32 @strcmp(ptr noundef %39, ptr noundef %40) #22
  %42 = icmp ne i32 %41, 0
  br i1 %42, label %45, label %43

43:                                               ; preds = %18
  %44 = load ptr, ptr %12, align 8
  store ptr %44, ptr %5, align 8
  store i32 1, ptr %13, align 4
  br label %46

45:                                               ; preds = %18
  store i32 0, ptr %13, align 4
  br label %46

46:                                               ; preds = %45, %43
  call void @llvm.lifetime.end.p0(i64 8, ptr %12) #21
  call void @llvm.lifetime.end.p0(i64 8, ptr %11) #21
  %47 = load i32, ptr %13, align 4
  switch i32 %47, label %53 [
    i32 0, label %48
  ]

48:                                               ; preds = %46
  br label %49

49:                                               ; preds = %48
  %50 = load i32, ptr %10, align 4
  %51 = add i32 %50, 2
  store i32 %51, ptr %10, align 4
  br label %14, !llvm.loop !18

52:                                               ; preds = %14
  store ptr null, ptr %5, align 8
  store i32 1, ptr %13, align 4
  br label %53

53:                                               ; preds = %52, %46
  call void @llvm.lifetime.end.p0(i64 4, ptr %10) #21
  %54 = load ptr, ptr %5, align 8
  ret ptr %54
}

; Function Attrs: null_pointer_is_valid sspstrong uwtable
define internal i32 @sharkd_session_process_check(ptr noundef %0, ptr noundef %1, i32 noundef %2) #0 {
  %4 = alloca i32, align 4
  %5 = alloca ptr, align 8
  %6 = alloca ptr, align 8
  %7 = alloca i32, align 4
  %8 = alloca ptr, align 8
  %9 = alloca ptr, align 8
  %10 = alloca ptr, align 8
  %11 = alloca ptr, align 8
  %12 = alloca i32, align 4
  %13 = alloca ptr, align 8
  store ptr %0, ptr %5, align 8
  store ptr %1, ptr %6, align 8
  store i32 %2, ptr %7, align 4
  call void @llvm.lifetime.start.p0(i64 8, ptr %8) #21
  %14 = load ptr, ptr %5, align 8
  %15 = load ptr, ptr %6, align 8
  %16 = load i32, ptr %7, align 4
  %17 = call ptr @json_find_attr(ptr noundef %14, ptr noundef %15, i32 noundef %16, ptr noundef @.str.34)
  store ptr %17, ptr %8, align 8
  call void @llvm.lifetime.start.p0(i64 8, ptr %9) #21
  %18 = load ptr, ptr %5, align 8
  %19 = load ptr, ptr %6, align 8
  %20 = load i32, ptr %7, align 4
  %21 = call ptr @json_find_attr(ptr noundef %18, ptr noundef %19, i32 noundef %20, ptr noundef @.str.33)
  store ptr %21, ptr %9, align 8
  %22 = load ptr, ptr %8, align 8
  %23 = icmp ne ptr %22, null
  br i1 %23, label %24, label %46

24:                                               ; preds = %3
  call void @llvm.lifetime.start.p0(i64 8, ptr %10) #21
  call void @llvm.lifetime.start.p0(i64 8, ptr %11) #21
  store ptr null, ptr %11, align 8
  %25 = load ptr, ptr %8, align 8
  %26 = call zeroext i1 @dfilter_compile_full(ptr noundef %25, ptr noundef %10, ptr noundef %11, i32 noundef 6, ptr noundef @__func__.sharkd_session_process_check)
  br i1 %26, label %27, label %40

27:                                               ; preds = %24
  %28 = load ptr, ptr %10, align 8
  %29 = icmp ne ptr %28, null
  br i1 %29, label %30, label %36

30:                                               ; preds = %27
  %31 = load ptr, ptr %10, align 8
  %32 = call ptr @dfilter_deprecated_tokens(ptr noundef %31)
  %33 = icmp ne ptr %32, null
  br i1 %33, label %34, label %36

34:                                               ; preds = %30
  %35 = load i32, ptr @rpcid, align 4
  call void @sharkd_json_warning(i32 noundef %35, ptr noundef @.str.180)
  br label %38

36:                                               ; preds = %30, %27
  %37 = load i32, ptr @rpcid, align 4
  call void @sharkd_json_simple_ok(i32 noundef %37)
  br label %38

38:                                               ; preds = %36, %34
  %39 = load ptr, ptr %10, align 8
  call void @dfilter_free(ptr noundef %39)
  call void @df_error_free(ptr noundef %11)
  store i32 0, ptr %4, align 4
  store i32 1, ptr %12, align 4
  br label %45

40:                                               ; preds = %24
  %41 = load i32, ptr @rpcid, align 4
  %42 = load ptr, ptr %11, align 8
  %43 = getelementptr inbounds nuw %struct.df_error_t, ptr %42, i32 0, i32 1
  %44 = load ptr, ptr %43, align 8
  call void (i32, i32, ptr, ptr, ...) @sharkd_json_error(i32 noundef %41, i32 noundef -5001, ptr noundef null, ptr noundef @.str.181, ptr noundef %44)
  call void @df_error_free(ptr noundef %11)
  store i32 -5001, ptr %4, align 4
  store i32 1, ptr %12, align 4
  br label %45

45:                                               ; preds = %40, %38
  call void @llvm.lifetime.end.p0(i64 8, ptr %11) #21
  call void @llvm.lifetime.end.p0(i64 8, ptr %10) #21
  br label %62

46:                                               ; preds = %3
  %47 = load ptr, ptr %9, align 8
  %48 = icmp ne ptr %47, null
  br i1 %48, label %49, label %60

49:                                               ; preds = %46
  call void @llvm.lifetime.start.p0(i64 8, ptr %13) #21
  %50 = load ptr, ptr %9, align 8
  %51 = call ptr @proto_registrar_get_byname(ptr noundef %50)
  store ptr %51, ptr %13, align 8
  %52 = load ptr, ptr %13, align 8
  %53 = icmp ne ptr %52, null
  br i1 %53, label %57, label %54

54:                                               ; preds = %49
  %55 = load i32, ptr @rpcid, align 4
  %56 = load ptr, ptr %9, align 8
  call void (i32, i32, ptr, ptr, ...) @sharkd_json_error(i32 noundef %55, i32 noundef -5002, ptr noundef null, ptr noundef @.str.182, ptr noundef %56)
  store i32 -5002, ptr %4, align 4
  store i32 1, ptr %12, align 4
  br label %59

57:                                               ; preds = %49
  %58 = load i32, ptr @rpcid, align 4
  call void @sharkd_json_simple_ok(i32 noundef %58)
  store i32 0, ptr %4, align 4
  store i32 1, ptr %12, align 4
  br label %59

59:                                               ; preds = %57, %54
  call void @llvm.lifetime.end.p0(i64 8, ptr %13) #21
  br label %62

60:                                               ; preds = %46
  %61 = load i32, ptr @rpcid, align 4
  call void @sharkd_json_simple_ok(i32 noundef %61)
  store i32 0, ptr %4, align 4
  store i32 1, ptr %12, align 4
  br label %62

62:                                               ; preds = %60, %59, %45
  call void @llvm.lifetime.end.p0(i64 8, ptr %9) #21
  call void @llvm.lifetime.end.p0(i64 8, ptr %8) #21
  %63 = load i32, ptr %4, align 4
  ret i32 %63
}