; Function Attrs: null_pointer_is_valid sspstrong uwtable
define internal fastcc void @sharkd_session_process_check(ptr noundef %0, ptr noundef readonly captures(none) %1, i32 noundef range(i32 0, 2147483647) %2) unnamed_addr #0 {
  %4 = alloca ptr, align 8
  %5 = alloca ptr, align 8
  %.not.i = icmp eq i32 %2, 0
  br i1 %.not.i, label %.thread, label %.lr.ph.preheader.i

.lr.ph.preheader.i:                               ; preds = %3
  %6 = zext nneg i32 %2 to i64
  br label %.lr.ph.i

.lr.ph.i:                                         ; preds = %18, %.lr.ph.preheader.i
  %indvars.iv.i = phi i64 [ 0, %.lr.ph.preheader.i ], [ %indvars.iv.next.i, %18 ]
  %7 = getelementptr %struct.jsmntok_t, ptr %1, i64 %indvars.iv.i, i32 1
  %8 = load i32, ptr %7, align 4
  %9 = sext i32 %8 to i64
  %10 = getelementptr i8, ptr %0, i64 %9
  %11 = tail call i32 @strcmp(ptr noundef readonly %10, ptr noundef nonnull dereferenceable(7) @.str.34) #18
  %.not.not.i = icmp eq i32 %11, 0
  br i1 %.not.not.i, label %.thread.i, label %18

.thread.i:                                        ; preds = %.lr.ph.i
  %12 = and i64 %indvars.iv.i, 4294967294
  %13 = or disjoint i64 %12, 1
  %14 = getelementptr %struct.jsmntok_t, ptr %1, i64 %13, i32 1
  %15 = load i32, ptr %14, align 4
  %16 = sext i32 %15 to i64
  %17 = getelementptr i8, ptr %0, i64 %16
  br label %.lr.ph.preheader.i20

18:                                               ; preds = %.lr.ph.i
  %indvars.iv.next.i = add nuw nsw i64 %indvars.iv.i, 2
  %19 = icmp samesign ult i64 %indvars.iv.next.i, %6
  br i1 %19, label %.lr.ph.i, label %.lr.ph.preheader.i20, !llvm.loop !10

.lr.ph.preheader.i20:                             ; preds = %18, %.thread.i
  %.2.i = phi ptr [ %17, %.thread.i ], [ null, %18 ]
  br label %.lr.ph.i21

.lr.ph.i21:                                       ; preds = %25, %.lr.ph.preheader.i20
  %indvars.iv.i22 = phi i64 [ 0, %.lr.ph.preheader.i20 ], [ %indvars.iv.next.i24, %25 ]
  %20 = getelementptr %struct.jsmntok_t, ptr %1, i64 %indvars.iv.i22, i32 1
  %21 = load i32, ptr %20, align 4
  %22 = sext i32 %21 to i64
  %23 = getelementptr i8, ptr %0, i64 %22
  %24 = tail call i32 @strcmp(ptr noundef readonly %23, ptr noundef nonnull dereferenceable(6) @.str.33) #18
  %.not.not.i23 = icmp eq i32 %24, 0
  br i1 %.not.not.i23, label %json_find_attr.exit27, label %25

25:                                               ; preds = %.lr.ph.i21
  %indvars.iv.next.i24 = add nuw nsw i64 %indvars.iv.i22, 2
  %26 = icmp samesign ult i64 %indvars.iv.next.i24, %6
  br i1 %26, label %.lr.ph.i21, label %json_find_attr.exit27.thread, !llvm.loop !10

json_find_attr.exit27:                            ; preds = %.lr.ph.i21
  %27 = and i64 %indvars.iv.i22, 4294967294
  %28 = or disjoint i64 %27, 1
  %29 = getelementptr %struct.jsmntok_t, ptr %1, i64 %28, i32 1
  %30 = load i32, ptr %29, align 4
  %31 = sext i32 %30 to i64
  %32 = getelementptr i8, ptr %0, i64 %31
  %.not = icmp eq ptr %.2.i, null
  br i1 %.not, label %54, label %33

json_find_attr.exit27.thread:                     ; preds = %25
  %.not41 = icmp eq ptr %.2.i, null
  br i1 %.not41, label %.thread, label %33

33:                                               ; preds = %json_find_attr.exit27.thread, %json_find_attr.exit27
  call void @llvm.lifetime.start.p0(i64 8, ptr nonnull %4) #17
  call void @llvm.lifetime.start.p0(i64 8, ptr nonnull %5) #17
  store ptr null, ptr %5, align 8
  %34 = call zeroext i1 @dfilter_compile_full(ptr noundef nonnull %.2.i, ptr noundef nonnull %4, ptr noundef nonnull %5, i32 noundef 6, ptr noundef nonnull @__func__.sharkd_session_process_check)
  br i1 %34, label %35, label %48

35:                                               ; preds = %33
  %36 = load ptr, ptr %4, align 8
  %.not17 = icmp eq ptr %36, null
  br i1 %.not17, label %44, label %37

37:                                               ; preds = %35
  %38 = call ptr @dfilter_deprecated_tokens(ptr noundef nonnull %36)
  %.not18 = icmp eq ptr %38, null
  br i1 %.not18, label %44, label %39

39:                                               ; preds = %37
  %40 = load i32, ptr @rpcid, align 4
  call void @json_dumper_begin_object(ptr noundef nonnull @dumper)
  call void @json_dumper_set_member_name(ptr noundef nonnull @dumper, ptr noundef nonnull @.str.8)
  call void @json_dumper_value_string(ptr noundef nonnull @dumper, ptr noundef nonnull @.str.9)
  call void (ptr, ptr, ...) @sharkd_json_value_anyf(ptr noundef nonnull @.str.10, ptr noundef nonnull @.str.5, i32 noundef %40)
  call void @json_dumper_set_member_name(ptr noundef nonnull @dumper, ptr noundef nonnull @.str.122)
  call void @json_dumper_begin_object(ptr noundef nonnull @dumper)
  call void @json_dumper_set_member_name(ptr noundef nonnull @dumper, ptr noundef nonnull @.str.14)
  call void @json_dumper_value_string(ptr noundef nonnull @dumper, ptr noundef nonnull @.str.183)
  call void @json_dumper_set_member_name(ptr noundef nonnull @dumper, ptr noundef nonnull @.str.184)
  call void @json_dumper_value_string(ptr noundef nonnull @dumper, ptr noundef nonnull @.str.180)
  call void @json_dumper_end_object(ptr noundef nonnull @dumper)
  call void @json_dumper_end_object(ptr noundef nonnull @dumper)
  %41 = call zeroext i1 @json_dumper_finish(ptr noundef nonnull @dumper)
  %42 = load ptr, ptr @stdout, align 8
  %43 = call i32 @fflush(ptr noundef %42)
  br label %46

44:                                               ; preds = %37, %35
  %45 = load i32, ptr @rpcid, align 4
  call fastcc void @sharkd_json_simple_ok(i32 noundef %45)
  br label %46

46:                                               ; preds = %44, %39
  %47 = load ptr, ptr %4, align 8
  call void @dfilter_free(ptr noundef %47)
  br label %53

48:                                               ; preds = %33
  %49 = load i32, ptr @rpcid, align 4
  %50 = load ptr, ptr %5, align 8
  %51 = getelementptr inbounds nuw i8, ptr %50, i64 8
  %52 = load ptr, ptr %51, align 8
  call void (i32, i32, ptr, ptr, ...) @sharkd_json_error(i32 noundef %49, i32 noundef -5001, ptr poison, ptr noundef nonnull @.str.181, ptr noundef %52)
  br label %53

53:                                               ; preds = %48, %46
  call void @df_error_free(ptr noundef nonnull %5)
  call void @llvm.lifetime.end.p0(i64 8, ptr nonnull %5) #17
  call void @llvm.lifetime.end.p0(i64 8, ptr nonnull %4) #17
  br label %61

54:                                               ; preds = %json_find_attr.exit27
  %.not15 = icmp eq ptr %32, null
  br i1 %.not15, label %.thread, label %55

55:                                               ; preds = %54
  %56 = tail call ptr @proto_registrar_get_byname(ptr noundef nonnull %32)
  %.not16 = icmp eq ptr %56, null
  %57 = load i32, ptr @rpcid, align 4
  br i1 %.not16, label %58, label %59

58:                                               ; preds = %55
  tail call void (i32, i32, ptr, ptr, ...) @sharkd_json_error(i32 noundef %57, i32 noundef -5002, ptr poison, ptr noundef nonnull @.str.182, ptr noundef nonnull %32)
  br label %61

59:                                               ; preds = %55
  tail call fastcc void @sharkd_json_simple_ok(i32 noundef %57)
  br label %61

.thread:                                          ; preds = %json_find_attr.exit27.thread, %3, %54
  %60 = load i32, ptr @rpcid, align 4
  tail call fastcc void @sharkd_json_simple_ok(i32 noundef %60)
  br label %61

61:                                               ; preds = %58, %59, %.thread, %53
  ret void
}